target datalayout = "e-m:e-p270:32:32-p271:32:32-p272:64:64-i64:64-i128:128-f80:128-n8:16:32:64-S128"
target triple = "x86_64-pc-linux-gnu"

%struct.AVComplexInt32 = type { i32, i32 }

@ff_tx_tab_53_int32 = global [12 x i32] zeroinitializer, align 16

; Function Attrs: alwaysinline nounwind uwtable
define internal void @fft3(ptr noundef %0, ptr noundef %1, i64 noundef %2) #8 {
  %4 = alloca ptr, align 8
  %5 = alloca ptr, align 8
  %6 = alloca i64, align 8
  %7 = alloca [3 x %struct.AVComplexInt32], align 16
  %8 = alloca ptr, align 8
  %9 = alloca [4 x i64], align 16
  store ptr %0, ptr %4, align 8, !tbaa !57
  store ptr %1, ptr %5, align 8, !tbaa !57
  store i64 %2, ptr %6, align 8, !tbaa !30
  call void @llvm.lifetime.start.p0(i64 24, ptr %7) #10
  call void @llvm.lifetime.start.p0(i64 8, ptr %8) #10
  store ptr @ff_tx_tab_53_int32, ptr %8, align 8, !tbaa !19
  call void @llvm.lifetime.start.p0(i64 32, ptr %9) #10
  %10 = getelementptr inbounds [3 x %struct.AVComplexInt32], ptr %7, i64 0, i64 0
  %11 = load ptr, ptr %5, align 8, !tbaa !57
  %12 = getelementptr inbounds %struct.AVComplexInt32, ptr %11, i64 0
  call void @llvm.memcpy.p0.p0.i64(ptr align 16 %10, ptr align 4 %12, i64 8, i1 false), !tbaa.struct !35
  br label %13

13:                                               ; preds = %3
  %14 = load ptr, ptr %5, align 8, !tbaa !57
  %15 = getelementptr inbounds %struct.AVComplexInt32, ptr %14, i64 1
  %16 = getelementptr inbounds nuw %struct.AVComplexInt32, ptr %15, i32 0, i32 1
  %17 = load i32, ptr %16, align 4, !tbaa !34
  %18 = load ptr, ptr %5, align 8, !tbaa !57
  %19 = getelementptr inbounds %struct.AVComplexInt32, ptr %18, i64 2
  %20 = getelementptr inbounds nuw %struct.AVComplexInt32, ptr %19, i32 0, i32 1
  %21 = load i32, ptr %20, align 4, !tbaa !34
  %22 = sub i32 %17, %21
  %23 = getelementptr inbounds [3 x %struct.AVComplexInt32], ptr %7, i64 0, i64 1
  %24 = getelementptr inbounds nuw %struct.AVComplexInt32, ptr %23, i32 0, i32 0
  store i32 %22, ptr %24, align 8, !tbaa !32
  %25 = load ptr, ptr %5, align 8, !tbaa !57
  %26 = getelementptr inbounds %struct.AVComplexInt32, ptr %25, i64 1
  %27 = getelementptr inbounds nuw %struct.AVComplexInt32, ptr %26, i32 0, i32 1
  %28 = load i32, ptr %27, align 4, !tbaa !34
  %29 = load ptr, ptr %5, align 8, !tbaa !57
  %30 = getelementptr inbounds %struct.AVComplexInt32, ptr %29, i64 2
  %31 = getelementptr inbounds nuw %struct.AVComplexInt32, ptr %30, i32 0, i32 1
  %32 = load i32, ptr %31, align 4, !tbaa !34
  %33 = add i32 %28, %32
  %34 = getelementptr inbounds [3 x %struct.AVComplexInt32], ptr %7, i64 0, i64 2
  %35 = getelementptr inbounds nuw %struct.AVComplexInt32, ptr %34, i32 0, i32 1
  store i32 %33, ptr %35, align 4, !tbaa !34
  br label %36

36:                                               ; preds = %13
  br label %37

37:                                               ; preds = %36
  br label %38

38:                                               ; preds = %37
  %39 = load ptr, ptr %5, align 8, !tbaa !57
  %40 = getelementptr inbounds %struct.AVComplexInt32, ptr %39, i64 1
  %41 = getelementptr inbounds nuw %struct.AVComplexInt32, ptr %40, i32 0, i32 0
  %42 = load i32, ptr %41, align 4, !tbaa !32
  %43 = load ptr, ptr %5, align 8, !tbaa !57
  %44 = getelementptr inbounds %struct.AVComplexInt32, ptr %43, i64 2
  %45 = getelementptr inbounds nuw %struct.AVComplexInt32, ptr %44, i32 0, i32 0
  %46 = load i32, ptr %45, align 4, !tbaa !32
  %47 = sub i32 %42, %46
  %48 = getelementptr inbounds [3 x %struct.AVComplexInt32], ptr %7, i64 0, i64 1
  %49 = getelementptr inbounds nuw %struct.AVComplexInt32, ptr %48, i32 0, i32 1
  store i32 %47, ptr %49, align 4, !tbaa !34
  %50 = load ptr, ptr %5, align 8, !tbaa !57
  %51 = getelementptr inbounds %struct.AVComplexInt32, ptr %50, i64 1
  %52 = getelementptr inbounds nuw %struct.AVComplexInt32, ptr %51, i32 0, i32 0
  %53 = load i32, ptr %52, align 4, !tbaa !32
  %54 = load ptr, ptr %5, align 8, !tbaa !57
  %55 = getelementptr inbounds %struct.AVComplexInt32, ptr %54, i64 2
  %56 = getelementptr inbounds nuw %struct.AVComplexInt32, ptr %55, i32 0, i32 0
  %57 = load i32, ptr %56, align 4, !tbaa !32
  %58 = add i32 %53, %57
  %59 = getelementptr inbounds [3 x %struct.AVComplexInt32], ptr %7, i64 0, i64 2
  %60 = getelementptr inbounds nuw %struct.AVComplexInt32, ptr %59, i32 0, i32 0
  store i32 %58, ptr %60, align 16, !tbaa !32
  br label %61

61:                                               ; preds = %38
  br label %62

62:                                               ; preds = %61
  %63 = getelementptr inbounds [3 x %struct.AVComplexInt32], ptr %7, i64 0, i64 0
  %64 = getelementptr inbounds nuw %struct.AVComplexInt32, ptr %63, i32 0, i32 0
  %65 = load i32, ptr %64, align 16, !tbaa !32
  %66 = sext i32 %65 to i64
  %67 = getelementptr inbounds [3 x %struct.AVComplexInt32], ptr %7, i64 0, i64 2
  %68 = getelementptr inbounds nuw %struct.AVComplexInt32, ptr %67, i32 0, i32 0
  %69 = load i32, ptr %68, align 16, !tbaa !32
  %70 = sext i32 %69 to i64
  %71 = add nsw i64 %66, %70
  %72 = trunc i64 %71 to i32
  %73 = load ptr, ptr %4, align 8, !tbaa !57
  %74 = load i64, ptr %6, align 8, !tbaa !30
  %75 = mul nsw i64 0, %74
  %76 = getelementptr inbounds %struct.AVComplexInt32, ptr %73, i64 %75
  %77 = getelementptr inbounds nuw %struct.AVComplexInt32, ptr %76, i32 0, i32 0
  store i32 %72, ptr %77, align 4, !tbaa !32
  %78 = getelementptr inbounds [3 x %struct.AVComplexInt32], ptr %7, i64 0, i64 0
  %79 = getelementptr inbounds nuw %struct.AVComplexInt32, ptr %78, i32 0, i32 1
  %80 = load i32, ptr %79, align 4, !tbaa !34
  %81 = sext i32 %80 to i64
  %82 = getelementptr inbounds [3 x %struct.AVComplexInt32], ptr %7, i64 0, i64 2
  %83 = getelementptr inbounds nuw %struct.AVComplexInt32, ptr %82, i32 0, i32 1
  %84 = load i32, ptr %83, align 4, !tbaa !34
  %85 = sext i32 %84 to i64
  %86 = add nsw i64 %81, %85
  %87 = trunc i64 %86 to i32
  %88 = load ptr, ptr %4, align 8, !tbaa !57
  %89 = load i64, ptr %6, align 8, !tbaa !30
  %90 = mul nsw i64 0, %89
  %91 = getelementptr inbounds %struct.AVComplexInt32, ptr %88, i64 %90
  %92 = getelementptr inbounds nuw %struct.AVComplexInt32, ptr %91, i32 0, i32 1
  store i32 %87, ptr %92, align 4, !tbaa !34
  %93 = load ptr, ptr %8, align 8, !tbaa !19
  %94 = getelementptr inbounds i32, ptr %93, i64 8
  %95 = load i32, ptr %94, align 4, !tbaa !4
  %96 = sext i32 %95 to i64
  %97 = getelementptr inbounds [3 x %struct.AVComplexInt32], ptr %7, i64 0, i64 1
  %98 = getelementptr inbounds nuw %struct.AVComplexInt32, ptr %97, i32 0, i32 0
  %99 = load i32, ptr %98, align 8, !tbaa !32
  %100 = sext i32 %99 to i64
  %101 = mul nsw i64 %96, %100
  %102 = getelementptr inbounds [4 x i64], ptr %9, i64 0, i64 0
  store i64 %101, ptr %102, align 16, !tbaa !30
  %103 = load ptr, ptr %8, align 8, !tbaa !19
  %104 = getelementptr inbounds i32, ptr %103, i64 9
  %105 = load i32, ptr %104, align 4, !tbaa !4
  %106 = sext i32 %105 to i64
  %107 = getelementptr inbounds [3 x %struct.AVComplexInt32], ptr %7, i64 0, i64 1
  %108 = getelementptr inbounds nuw %struct.AVComplexInt32, ptr %107, i32 0, i32 1
  %109 = load i32, ptr %108, align 4, !tbaa !34
  %110 = sext i32 %109 to i64
  %111 = mul nsw i64 %106, %110
  %112 = getelementptr inbounds [4 x i64], ptr %9, i64 0, i64 1
  store i64 %111, ptr %112, align 8, !tbaa !30
  %113 = load ptr, ptr %8, align 8, !tbaa !19
  %114 = getelementptr inbounds i32, ptr %113, i64 10
  %115 = load i32, ptr %114, align 4, !tbaa !4
  %116 = sext i32 %115 to i64
  %117 = getelementptr inbounds [3 x %struct.AVComplexInt32], ptr %7, i64 0, i64 2
  %118 = getelementptr inbounds nuw %struct.AVComplexInt32, ptr %117, i32 0, i32 0
  %119 = load i32, ptr %118, align 16, !tbaa !32
  %120 = sext i32 %119 to i64
  %121 = mul nsw i64 %116, %120
  %122 = getelementptr inbounds [4 x i64], ptr %9, i64 0, i64 2
  store i64 %121, ptr %122, align 16, !tbaa !30
  %123 = load ptr, ptr %8, align 8, !tbaa !19
  %124 = getelementptr inbounds i32, ptr %123, i64 10
  %125 = load i32, ptr %124, align 4, !tbaa !4
  %126 = sext i32 %125 to i64
  %127 = getelementptr inbounds [3 x %struct.AVComplexInt32], ptr %7, i64 0, i64 2
  %128 = getelementptr inbounds nuw %struct.AVComplexInt32, ptr %127, i32 0, i32 1
  %129 = load i32, ptr %128, align 4, !tbaa !34
  %130 = sext i32 %129 to i64
  %131 = mul nsw i64 %126, %130
  %132 = getelementptr inbounds [4 x i64], ptr %9, i64 0, i64 3
  store i64 %131, ptr %132, align 8, !tbaa !30
  %133 = getelementptr inbounds [3 x %struct.AVComplexInt32], ptr %7, i64 0, i64 0
  %134 = getelementptr inbounds nuw %struct.AVComplexInt32, ptr %133, i32 0, i32 0
  %135 = load i32, ptr %134, align 16, !tbaa !32
  %136 = sext i32 %135 to i64
  %137 = getelementptr inbounds [4 x i64], ptr %9, i64 0, i64 2
  %138 = load i64, ptr %137, align 16, !tbaa !30
  %139 = getelementptr inbounds [4 x i64], ptr %9, i64 0, i64 0
  %140 = load i64, ptr %139, align 16, !tbaa !30
  %141 = add nsw i64 %138, %140
  %142 = add nsw i64 %141, 1073741824
  %143 = ashr i64 %142, 31
  %144 = sub nsw i64 %136, %143
  %145 = trunc i64 %144 to i32
  %146 = load ptr, ptr %4, align 8, !tbaa !57
  %147 = load i64, ptr %6, align 8, !tbaa !30
  %148 = mul nsw i64 1, %147
  %149 = getelementptr inbounds %struct.AVComplexInt32, ptr %146, i64 %148
  %150 = getelementptr inbounds nuw %struct.AVComplexInt32, ptr %149, i32 0, i32 0
  store i32 %145, ptr %150, align 4, !tbaa !32
  %151 = getelementptr inbounds [3 x %struct.AVComplexInt32], ptr %7, i64 0, i64 0
  %152 = getelementptr inbounds nuw %struct.AVComplexInt32, ptr %151, i32 0, i32 1
  %153 = load i32, ptr %152, align 4, !tbaa !34
  %154 = sext i32 %153 to i64
  %155 = getelementptr inbounds [4 x i64], ptr %9, i64 0, i64 3
  %156 = load i64, ptr %155, align 8, !tbaa !30
  %157 = getelementptr inbounds [4 x i64], ptr %9, i64 0, i64 1
  %158 = load i64, ptr %157, align 8, !tbaa !30
  %159 = sub nsw i64 %156, %158
  %160 = add nsw i64 %159, 1073741824
  %161 = ashr i64 %160, 31
  %162 = sub nsw i64 %154, %161
  %163 = trunc i64 %162 to i32
  %164 = load ptr, ptr %4, align 8, !tbaa !57
  %165 = load i64, ptr %6, align 8, !tbaa !30
  %166 = mul nsw i64 1, %165
  %167 = getelementptr inbounds %struct.AVComplexInt32, ptr %164, i64 %166
  %168 = getelementptr inbounds nuw %struct.AVComplexInt32, ptr %167, i32 0, i32 1
  store i32 %163, ptr %168, align 4, !tbaa !34
  %169 = getelementptr inbounds [3 x %struct.AVComplexInt32], ptr %7, i64 0, i64 0
  %170 = getelementptr inbounds nuw %struct.AVComplexInt32, ptr %169, i32 0, i32 0
  %171 = load i32, ptr %170, align 16, !tbaa !32
  %172 = sext i32 %171 to i64
  %173 = getelementptr inbounds [4 x i64], ptr %9, i64 0, i64 2
  %174 = load i64, ptr %173, align 16, !tbaa !30
  %175 = getelementptr inbounds [4 x i64], ptr %9, i64 0, i64 0
  %176 = load i64, ptr %175, align 16, !tbaa !30
  %177 = sub nsw i64 %174, %176
  %178 = add nsw i64 %177, 1073741824
  %179 = ashr i64 %178, 31
  %180 = sub nsw i64 %172, %179
  %181 = trunc i64 %180 to i32
  %182 = load ptr, ptr %4, align 8, !tbaa !57
  %183 = load i64, ptr %6, align 8, !tbaa !30
  %184 = mul nsw i64 2, %183
  %185 = getelementptr inbounds %struct.AVComplexInt32, ptr %182, i64 %184
  %186 = getelementptr inbounds nuw %struct.AVComplexInt32, ptr %185, i32 0, i32 0
  store i32 %181, ptr %186, align 4, !tbaa !32
  %187 = getelementptr inbounds [3 x %struct.AVComplexInt32], ptr %7, i64 0, i64 0
  %188 = getelementptr inbounds nuw %struct.AVComplexInt32, ptr %187, i32 0, i32 1
  %189 = load i32, ptr %188, align 4, !tbaa !34
  %190 = sext i32 %189 to i64
  %191 = getelementptr inbounds [4 x i64], ptr %9, i64 0, i64 3
  %192 = load i64, ptr %191, align 8, !tbaa !30
  %193 = getelementptr inbounds [4 x i64], ptr %9, i64 0, i64 1
  %194 = load i64, ptr %193, align 8, !tbaa !30
  %195 = add nsw i64 %192, %194
  %196 = add nsw i64 %195, 1073741824
  %197 = ashr i64 %196, 31
  %198 = sub nsw i64 %190, %197
  %199 = trunc i64 %198 to i32
  %200 = load ptr, ptr %4, align 8, !tbaa !57
  %201 = load i64, ptr %6, align 8, !tbaa !30
  %202 = mul nsw i64 2, %201
  %203 = getelementptr inbounds %struct.AVComplexInt32, ptr %200, i64 %202
  %204 = getelementptr inbounds nuw %struct.AVComplexInt32, ptr %203, i32 0, i32 1
  store i32 %199, ptr %204, align 4, !tbaa !34
  call void @llvm.lifetime.end.p0(i64 32, ptr %9) #10
  call void @llvm.lifetime.end.p0(i64 8, ptr %8) #10
  call void @llvm.lifetime.end.p0(i64 24, ptr %7) #10
  ret void
}

; Function Attrs: nounwind uwtable
define internal void @ff_tx_fft3_int32_c(ptr noundef %0, ptr noundef %1, ptr noundef %2, i64 noundef %3) #4 {
  %5 = alloca ptr, align 8
  %6 = alloca ptr, align 8
  %7 = alloca ptr, align 8
  %8 = alloca i64, align 8
  store ptr %0, ptr %5, align 8, !tbaa !17
  store ptr %1, ptr %6, align 8, !tbaa !8
  store ptr %2, ptr %7, align 8, !tbaa !8
  store i64 %3, ptr %8, align 8, !tbaa !30
  %9 = load ptr, ptr %6, align 8, !tbaa !8
  %10 = load ptr, ptr %7, align 8, !tbaa !8
  %11 = load i64, ptr %8, align 8, !tbaa !30
  %12 = udiv i64 %11, 8
  call void @fft3(ptr noundef %9, ptr noundef %10, i64 noundef %12)
  ret void
}