; Function Attrs: mustprogress nofree norecurse nosync nounwind willreturn memory(read, argmem: readwrite, inaccessiblemem: none) uwtable
define internal void @ff_tx_fft3_int32_c(ptr readnone captures(none) %0, ptr noundef writeonly captures(none) initializes((0, 8)) %1, ptr noundef readonly captures(none) %2, i64 noundef %3) #9 {
  %5 = lshr i64 %3, 3
  %.sroa.08.0.copyload.i = load i32, ptr %2, align 4, !tbaa !10
  %.sroa.6.0..sroa_idx.i = getelementptr inbounds nuw i8, ptr %2, i64 4
  %.sroa.6.0.copyload.i = load i32, ptr %.sroa.6.0..sroa_idx.i, align 4, !tbaa !10
  %6 = getelementptr inbounds nuw i8, ptr %2, i64 8
  %7 = getelementptr inbounds nuw i8, ptr %2, i64 12
  %8 = load i32, ptr %7, align 4, !tbaa !50
  %9 = getelementptr inbounds nuw i8, ptr %2, i64 16
  %10 = getelementptr inbounds nuw i8, ptr %2, i64 20
  %11 = load i32, ptr %10, align 4, !tbaa !50
  %12 = sub i32 %8, %11
  %13 = add i32 %11, %8
  %14 = load i32, ptr %6, align 4, !tbaa !48
  %15 = load i32, ptr %9, align 4, !tbaa !48
  %16 = sub i32 %14, %15
  %17 = add i32 %15, %14
  %18 = sext i32 %17 to i64
  %19 = add i32 %17, %.sroa.08.0.copyload.i
  store i32 %19, ptr %1, align 4, !tbaa !48
  %20 = sext i32 %13 to i64
  %21 = add i32 %13, %.sroa.6.0.copyload.i
  %22 = getelementptr inbounds nuw i8, ptr %1, i64 4
  store i32 %21, ptr %22, align 4, !tbaa !50
  %23 = load i32, ptr getelementptr inbounds nuw (i8, ptr @ff_tx_tab_53_int32, i64 32), align 16, !tbaa !10
  %24 = sext i32 %23 to i64
  %25 = sext i32 %12 to i64
  %26 = mul nsw i64 %24, %25
  %27 = load i32, ptr getelementptr inbounds nuw (i8, ptr @ff_tx_tab_53_int32, i64 36), align 4, !tbaa !10
  %28 = sext i32 %27 to i64
  %29 = sext i32 %16 to i64
  %30 = mul nsw i64 %28, %29
  %31 = load i32, ptr getelementptr inbounds nuw (i8, ptr @ff_tx_tab_53_int32, i64 40), align 8, !tbaa !10
  %32 = sext i32 %31 to i64
  %33 = mul nsw i64 %32, %18
  %34 = mul nsw i64 %32, %20
  %35 = add nsw i64 %26, 1073741824
  %36 = add i64 %35, %33
  %37 = lshr i64 %36, 31
  %38 = trunc i64 %37 to i32
  %39 = sub i32 %.sroa.08.0.copyload.i, %38
  %40 = getelementptr inbounds nuw %struct.AVComplexInt32, ptr %1, i64 %5
  store i32 %39, ptr %40, align 4, !tbaa !48
  %reass.sub = sub nsw i64 %34, %30
  %41 = add nsw i64 %reass.sub, 1073741824
  %42 = lshr i64 %41, 31
  %43 = trunc i64 %42 to i32
  %44 = sub i32 %.sroa.6.0.copyload.i, %43
  %45 = getelementptr inbounds nuw i8, ptr %40, i64 4
  store i32 %44, ptr %45, align 4, !tbaa !50
  %reass.sub3 = sub nsw i64 %33, %26
  %46 = add nsw i64 %reass.sub3, 1073741824
  %47 = lshr i64 %46, 31
  %48 = trunc i64 %47 to i32
  %49 = sub i32 %.sroa.08.0.copyload.i, %48
  %.idx.i = shl nsw i64 %5, 4
  %50 = getelementptr inbounds nuw i8, ptr %1, i64 %.idx.i
  store i32 %49, ptr %50, align 4, !tbaa !48
  %51 = add nsw i64 %30, 1073741824
  %52 = add i64 %51, %34
  %53 = lshr i64 %52, 31
  %54 = trunc i64 %53 to i32
  %55 = sub i32 %.sroa.6.0.copyload.i, %54
  %56 = getelementptr inbounds nuw i8, ptr %50, i64 4
  store i32 %55, ptr %56, align 4, !tbaa !50
  ret void
}